; Function Attrs: mustprogress uwtable
define dso_local noundef i32 @_Z6randomRSt26linear_congruential_engineImLm16807ELm0ELm2147483647EEi(ptr noundef nonnull align 8 dereferenceable(8) %0, i32 noundef %1) local_unnamed_addr #3 {
  %3 = alloca %"class.std::uniform_int_distribution", align 4
  call void @llvm.lifetime.start.p0(i64 8, ptr nonnull %3) #25
  store i32 0, ptr %3, align 4, !tbaa !61
  %4 = getelementptr inbounds nuw i8, ptr %3, i64 4
  store i32 %1, ptr %4, align 4, !tbaa !63
  %5 = call noundef i32 @_ZNSt24uniform_int_distributionIiEclISt26linear_congruential_engineImLm16807ELm0ELm2147483647EEEEiRT_RKNS0_10param_typeE(ptr noundef nonnull align 4 dereferenceable(8) %3, ptr noundef nonnull align 8 dereferenceable(8) %0, ptr noundef nonnull align 4 dereferenceable(8) %3)
  call void @llvm.lifetime.end.p0(i64 8, ptr nonnull %3) #25
  ret i32 %5
}